target datalayout = "e-m:e-p270:32:32-p271:32:32-p272:64:64-i64:64-i128:128-f80:128-n8:16:32:64-S128"
target triple = "x86_64-pc-linux-gnu"

%struct._et_dissector_info = type { ptr }
%struct._packet_info = type { ptr, ptr, i32, i32, %struct.nstime_t, %struct.nstime_t, %struct.nstime_t, i32, ptr, ptr, ptr, ptr, %struct._address, %struct._address, %struct._address, %struct._address, %struct._address, %struct._address, i32, ptr, i32, %struct.anon, i32, i32, i32, i32, ptr, i32, ptr, ptr, i16, i16, i32, i32, i16, i32, i32, ptr, ptr, ptr, i8, i8, i16, i16, i16, i32, i16, i16, ptr, ptr, ptr, ptr, ptr, i32 }
%struct.nstime_t = type { i64, i32 }
%struct._address = type { i32, i32, ptr, ptr }
%struct.anon = type { i8, [3 x i8] }
%struct._frame_data = type { i32, i32, i32, i32, i64, ptr, ptr, ptr, i16, i16, %struct.nstime_t, %struct.nstime_t, i32, i32, i8 }
%struct.tcpheader = type { i32, i32, i32, i32, i32, i32, i32, i16, i16, i8, i32, i16, i32, %struct._address, %struct._address, i8, [4 x i32], [4 x i32], ptr }
%struct._conversation_hash_t = type { ptr, ptr, ptr, i32 }

@tcp_endpoint_dissector_info = internal global %struct._et_dissector_info { ptr @tcp_endpoint_get_filter_type }, align 8

; Function Attrs: nounwind uwtable
define internal i32 @tcpip_endpoint_packet(ptr noundef %0, ptr noundef %1, ptr noundef %2, ptr noundef %3, i32 noundef %4) #0 {
  %6 = alloca ptr, align 8
  %7 = alloca ptr, align 8
  %8 = alloca ptr, align 8
  %9 = alloca ptr, align 8
  %10 = alloca i32, align 4
  %11 = alloca ptr, align 8
  %12 = alloca ptr, align 8
  store ptr %0, ptr %6, align 8
  store ptr %1, ptr %7, align 8
  store ptr %2, ptr %8, align 8
  store ptr %3, ptr %9, align 8
  store i32 %4, ptr %10, align 4
  %13 = load ptr, ptr %6, align 8
  store ptr %13, ptr %11, align 8
  %14 = load i32, ptr %10, align 4
  %15 = load ptr, ptr %11, align 8
  %16 = getelementptr inbounds %struct._conversation_hash_t, ptr %15, i32 0, i32 3
  store i32 %14, ptr %16, align 8
  %17 = load ptr, ptr %9, align 8
  store ptr %17, ptr %12, align 8
  %18 = load ptr, ptr %11, align 8
  %19 = load ptr, ptr %12, align 8
  %20 = getelementptr inbounds %struct.tcpheader, ptr %19, i32 0, i32 13
  %21 = load ptr, ptr %12, align 8
  %22 = getelementptr inbounds %struct.tcpheader, ptr %21, i32 0, i32 7
  %23 = load i16, ptr %22, align 4
  %24 = zext i16 %23 to i32
  %25 = load ptr, ptr %7, align 8
  %26 = getelementptr inbounds %struct._packet_info, ptr %25, i32 0, i32 8
  %27 = load ptr, ptr %26, align 8
  %28 = getelementptr inbounds %struct._frame_data, ptr %27, i32 0, i32 1
  %29 = load i32, ptr %28, align 4
  call void @add_endpoint_table_data(ptr noundef %18, ptr noundef %20, i32 noundef %24, i32 noundef 1, i32 noundef 1, i32 noundef %29, ptr noundef @tcp_endpoint_dissector_info, i32 noundef 2)
  %30 = load ptr, ptr %11, align 8
  %31 = load ptr, ptr %12, align 8
  %32 = getelementptr inbounds %struct.tcpheader, ptr %31, i32 0, i32 14
  %33 = load ptr, ptr %12, align 8
  %34 = getelementptr inbounds %struct.tcpheader, ptr %33, i32 0, i32 8
  %35 = load i16, ptr %34, align 2
  %36 = zext i16 %35 to i32
  %37 = load ptr, ptr %7, align 8
  %38 = getelementptr inbounds %struct._packet_info, ptr %37, i32 0, i32 8
  %39 = load ptr, ptr %38, align 8
  %40 = getelementptr inbounds %struct._frame_data, ptr %39, i32 0, i32 1
  %41 = load i32, ptr %40, align 4
  call void @add_endpoint_table_data(ptr noundef %30, ptr noundef %32, i32 noundef %36, i32 noundef 0, i32 noundef 1, i32 noundef %41, ptr noundef @tcp_endpoint_dissector_info, i32 noundef 2)
  ret i32 1
}