; Function Attrs: nounwind uwtable
define internal noundef i32 @tcpip_endpoint_packet(ptr noundef initializes((24, 28)) %0, ptr noundef readonly captures(none) %1, ptr readnone captures(none) %2, ptr noundef %3, i32 noundef %4) #0 {
  %6 = getelementptr inbounds nuw i8, ptr %0, i64 24
  store i32 %4, ptr %6, align 8
  %7 = getelementptr inbounds nuw i8, ptr %3, i64 48
  %8 = getelementptr inbounds nuw i8, ptr %3, i64 28
  %9 = load i16, ptr %8, align 4
  %10 = zext i16 %9 to i32
  %11 = getelementptr inbounds nuw i8, ptr %1, i64 80
  %12 = load ptr, ptr %11, align 8
  %13 = getelementptr inbounds nuw i8, ptr %12, i64 4
  %14 = load i32, ptr %13, align 4
  tail call void @add_endpoint_table_data(ptr noundef %0, ptr noundef nonnull %7, i32 noundef %10, i32 noundef 1, i32 noundef 1, i32 noundef %14, ptr noundef nonnull @tcp_endpoint_dissector_info, i32 noundef 2) #20
  %15 = getelementptr inbounds nuw i8, ptr %3, i64 72
  %16 = getelementptr inbounds nuw i8, ptr %3, i64 30
  %17 = load i16, ptr %16, align 2
  %18 = zext i16 %17 to i32
  %19 = load ptr, ptr %11, align 8
  %20 = getelementptr inbounds nuw i8, ptr %19, i64 4
  %21 = load i32, ptr %20, align 4
  tail call void @add_endpoint_table_data(ptr noundef %0, ptr noundef nonnull %15, i32 noundef %18, i32 noundef 0, i32 noundef 1, i32 noundef %21, ptr noundef nonnull @tcp_endpoint_dissector_info, i32 noundef 2) #20
  ret i32 1
}